; Function Attrs: mustprogress uwtable
define void @_ZN2cv4gapi3own5Latch10count_downEv(ptr noundef nonnull align 8 dereferenceable(96) %0) local_unnamed_addr #2 align 2 personality ptr @__gxx_personality_v0 {
  %2 = getelementptr inbounds nuw i8, ptr %0, i64 8
  %3 = tail call noundef i32 @pthread_mutex_lock(ptr noundef nonnull align 8 dereferenceable(40) %2) #16
  %.not.i.i = icmp eq i32 %3, 0
  br i1 %.not.i.i, label %_ZNSt10lock_guardISt5mutexEC2ERS0_.exit, label %4

4:                                                ; preds = %1
  tail call void @_ZSt20__throw_system_errori(i32 noundef %3) #17
  unreachable

_ZNSt10lock_guardISt5mutexEC2ERS0_.exit:          ; preds = %1
  %5 = load i64, ptr %0, align 8, !tbaa !3
  %6 = add i64 %5, -1
  store i64 %6, ptr %0, align 8, !tbaa !3
  %7 = icmp eq i64 %6, 0
  br i1 %7, label %8, label %10

8:                                                ; preds = %_ZNSt10lock_guardISt5mutexEC2ERS0_.exit
  %9 = getelementptr inbounds nuw i8, ptr %0, i64 48
  tail call void @_ZNSt18condition_variable10notify_allEv(ptr noundef nonnull align 8 dereferenceable(48) %9) #16
  br label %10

10:                                               ; preds = %8, %_ZNSt10lock_guardISt5mutexEC2ERS0_.exit
  %11 = tail call noundef i32 @pthread_mutex_unlock(ptr noundef nonnull align 8 dereferenceable(40) %2) #16
  ret void
}